; Function Attrs: mustprogress uwtable
define noundef zeroext i1 @_ZN19PacketRangeGroupBox7isValidEv(ptr nocapture noundef nonnull readonly align 8 dereferenceable(60) %0) local_unnamed_addr #0 align 2 {
  %2 = getelementptr inbounds i8, ptr %0, i64 40
  %3 = load ptr, ptr %2, align 8
  %4 = getelementptr inbounds i8, ptr %3, i64 40
  %5 = load ptr, ptr %4, align 8
  %6 = tail call noundef zeroext i1 @_ZNK15QAbstractButton9isCheckedEv(ptr noundef nonnull align 8 dereferenceable(40) %5)
  %.not2 = xor i1 %6, true
  %7 = getelementptr inbounds i8, ptr %0, i64 56
  %8 = load i32, ptr %7, align 8
  %.not = icmp eq i32 %8, 0
  %or.cond = select i1 %.not2, i1 true, i1 %.not
  ret i1 %or.cond
}